target datalayout = "e-m:e-p270:32:32-p271:32:32-p272:64:64-i64:64-i128:128-f80:128-n8:16:32:64-S128"
target triple = "x86_64-pc-linux-gnu"

%"class.std::__shared_count" = type { ptr }
%"struct.std::pair" = type { %"class.std::shared_ptr.40", %"class.std::shared_ptr.40" }
%"class.std::shared_ptr.40" = type { %"class.std::__shared_ptr.41" }
%"class.std::__shared_ptr.41" = type { ptr, %"class.std::__shared_count" }
%"struct.std::pair.43" = type { i32, i32 }

; Function Attrs: mustprogress nounwind uwtable
define linkonce_odr noundef ptr @_ZNKSt12__shared_ptrIN32pxrInternal_v0_24__pxrReserved__24HdTypedSampledDataSourceIiEELN9__gnu_cxx12_Lock_policyE2EE3getEv(ptr noundef nonnull align 8 dereferenceable(16) %0) #3 comdat align 2 {
  %2 = alloca ptr, align 8
  store ptr %0, ptr %2, align 8
  %3 = load ptr, ptr %2, align 8
  %4 = getelementptr inbounds nuw %"class.std::__shared_ptr.41", ptr %3, i32 0, i32 0
  %5 = load ptr, ptr %4, align 8
  ret ptr %5
}

; Function Attrs: mustprogress nounwind uwtable
define linkonce_odr noundef ptr @_ZNKSt19__shared_ptr_accessIN32pxrInternal_v0_24__pxrReserved__24HdTypedSampledDataSourceIiEELN9__gnu_cxx12_Lock_policyE2ELb0ELb0EE6_M_getEv(ptr noundef nonnull align 1 dereferenceable(1) %0) #3 comdat align 2 {
  %2 = alloca ptr, align 8
  store ptr %0, ptr %2, align 8
  %3 = load ptr, ptr %2, align 8
  %4 = call noundef ptr @_ZNKSt12__shared_ptrIN32pxrInternal_v0_24__pxrReserved__24HdTypedSampledDataSourceIiEELN9__gnu_cxx12_Lock_policyE2EE3getEv(ptr noundef nonnull align 8 dereferenceable(16) %3) #4
  ret ptr %4
}

; Function Attrs: mustprogress nounwind uwtable
define linkonce_odr void @_ZNSt4pairIiiEC2IiiTnNSt9enable_ifIXaaclsr5_PCCPE22_MoveConstructiblePairIT_T0_EEclsr5_PCCPE30_ImplicitlyMoveConvertiblePairIS3_S4_EEEbE4typeELb1EEEOS3_OS4_(ptr noundef nonnull align 4 dereferenceable(8) %0, ptr noundef nonnull align 4 dereferenceable(4) %1, ptr noundef nonnull align 4 dereferenceable(4) %2) unnamed_addr #3 comdat align 2 {
  %4 = alloca ptr, align 8
  %5 = alloca ptr, align 8
  %6 = alloca ptr, align 8
  store ptr %0, ptr %4, align 8
  store ptr %1, ptr %5, align 8
  store ptr %2, ptr %6, align 8
  %7 = load ptr, ptr %4, align 8
  %8 = getelementptr inbounds nuw %"struct.std::pair.43", ptr %7, i32 0, i32 0
  %9 = load ptr, ptr %5, align 8
  %10 = load i32, ptr %9, align 4
  store i32 %10, ptr %8, align 4
  %11 = getelementptr inbounds nuw %"struct.std::pair.43", ptr %7, i32 0, i32 1
  %12 = load ptr, ptr %6, align 8
  %13 = load i32, ptr %12, align 4
  store i32 %13, ptr %11, align 4
  ret void
}

; Function Attrs: mustprogress nounwind uwtable
define linkonce_odr noundef ptr @_ZNKSt19__shared_ptr_accessIN32pxrInternal_v0_24__pxrReserved__24HdTypedSampledDataSourceIiEELN9__gnu_cxx12_Lock_policyE2ELb0ELb0EEptEv(ptr noundef nonnull align 1 dereferenceable(1) %0) #3 comdat align 2 {
  %2 = alloca ptr, align 8
  store ptr %0, ptr %2, align 8
  %3 = load ptr, ptr %2, align 8
  %4 = call noundef ptr @_ZNKSt19__shared_ptr_accessIN32pxrInternal_v0_24__pxrReserved__24HdTypedSampledDataSourceIiEELN9__gnu_cxx12_Lock_policyE2ELb0ELb0EE6_M_getEv(ptr noundef nonnull align 1 dereferenceable(1) %3) #4
  ret ptr %4
}

; Function Attrs: mustprogress nounwind uwtable
define linkonce_odr noundef zeroext i1 @_ZNKSt12__shared_ptrIN32pxrInternal_v0_24__pxrReserved__24HdTypedSampledDataSourceIiEELN9__gnu_cxx12_Lock_policyE2EEcvbEv(ptr noundef nonnull align 8 dereferenceable(16) %0) #3 comdat align 2 {
  %2 = alloca ptr, align 8
  store ptr %0, ptr %2, align 8
  %3 = load ptr, ptr %2, align 8
  %4 = getelementptr inbounds nuw %"class.std::__shared_ptr.41", ptr %3, i32 0, i32 0
  %5 = load ptr, ptr %4, align 8
  %6 = icmp ne ptr %5, null
  ret i1 %6
}

; Function Attrs: mustprogress uwtable
define i64 @_ZN32pxrInternal_v0_24__pxrReserved__17_NurbsPatchToMesh18_GetUVVertexCountsERKSt10shared_ptrINS_21HdContainerDataSourceEEf(ptr noundef nonnull align 8 dereferenceable(16) %0, float noundef %1) #2 personality ptr @__gxx_personality_v0 {
  %3 = alloca %"struct.std::pair.43", align 4
  %4 = alloca ptr, align 8
  %5 = alloca float, align 4
  %6 = alloca %"struct.std::pair", align 8
  %7 = alloca i32, align 4
  %8 = alloca ptr, align 8
  %9 = alloca i32, align 4
  %10 = alloca i32, align 4
  store ptr %0, ptr %4, align 8
  store float %1, ptr %5, align 4
  %11 = load ptr, ptr %4, align 8
  call void @_ZN32pxrInternal_v0_24__pxrReserved__17_NurbsPatchToMesh28_GetUVVertexCountDataSourcesERKSt10shared_ptrINS_21HdContainerDataSourceEE(ptr dead_on_unwind writable sret(%"struct.std::pair") align 8 %6, ptr noundef nonnull align 8 dereferenceable(16) %11)
  %12 = getelementptr inbounds nuw %"struct.std::pair", ptr %6, i32 0, i32 0
  %13 = call noundef zeroext i1 @_ZNKSt12__shared_ptrIN32pxrInternal_v0_24__pxrReserved__24HdTypedSampledDataSourceIiEELN9__gnu_cxx12_Lock_policyE2EEcvbEv(ptr noundef nonnull align 8 dereferenceable(16) %12) #4
  br i1 %13, label %14, label %23

14:                                               ; preds = %2
  %15 = getelementptr inbounds nuw %"struct.std::pair", ptr %6, i32 0, i32 0
  %16 = call noundef ptr @_ZNKSt19__shared_ptr_accessIN32pxrInternal_v0_24__pxrReserved__24HdTypedSampledDataSourceIiEELN9__gnu_cxx12_Lock_policyE2ELb0ELb0EEptEv(ptr noundef nonnull align 1 dereferenceable(1) %15) #4
  %17 = load float, ptr %5, align 4
  %18 = load ptr, ptr %16, align 8
  %19 = getelementptr inbounds ptr, ptr %18, i64 4
  %20 = load ptr, ptr %19, align 8
  %21 = invoke noundef i32 %20(ptr noundef nonnull align 8 dereferenceable(8) %16, float noundef %17)
          to label %22 unwind label %42

22:                                               ; preds = %14
  br label %24

23:                                               ; preds = %2
  br label %24

24:                                               ; preds = %23, %22
  %25 = phi i32 [ %21, %22 ], [ 0, %23 ]
  store i32 %25, ptr %7, align 4
  %26 = getelementptr inbounds nuw %"struct.std::pair", ptr %6, i32 0, i32 1
  %27 = call noundef zeroext i1 @_ZNKSt12__shared_ptrIN32pxrInternal_v0_24__pxrReserved__24HdTypedSampledDataSourceIiEELN9__gnu_cxx12_Lock_policyE2EEcvbEv(ptr noundef nonnull align 8 dereferenceable(16) %26) #4
  br i1 %27, label %28, label %37

28:                                               ; preds = %24
  %29 = getelementptr inbounds nuw %"struct.std::pair", ptr %6, i32 0, i32 1
  %30 = call noundef ptr @_ZNKSt19__shared_ptr_accessIN32pxrInternal_v0_24__pxrReserved__24HdTypedSampledDataSourceIiEELN9__gnu_cxx12_Lock_policyE2ELb0ELb0EEptEv(ptr noundef nonnull align 1 dereferenceable(1) %29) #4
  %31 = load float, ptr %5, align 4
  %32 = load ptr, ptr %30, align 8
  %33 = getelementptr inbounds ptr, ptr %32, i64 4
  %34 = load ptr, ptr %33, align 8
  %35 = invoke noundef i32 %34(ptr noundef nonnull align 8 dereferenceable(8) %30, float noundef %31)
          to label %36 unwind label %42

36:                                               ; preds = %28
  br label %38

37:                                               ; preds = %24
  br label %38

38:                                               ; preds = %37, %36
  %39 = phi i32 [ %35, %36 ], [ 0, %37 ]
  store i32 %39, ptr %10, align 4
  invoke void @_ZNSt4pairIiiEC2IiiTnNSt9enable_ifIXaaclsr5_PCCPE22_MoveConstructiblePairIT_T0_EEclsr5_PCCPE30_ImplicitlyMoveConvertiblePairIS3_S4_EEEbE4typeELb1EEEOS3_OS4_(ptr noundef nonnull align 4 dereferenceable(8) %3, ptr noundef nonnull align 4 dereferenceable(4) %7, ptr noundef nonnull align 4 dereferenceable(4) %10)
          to label %40 unwind label %42

40:                                               ; preds = %38
  call void @_ZNSt4pairISt10shared_ptrIN32pxrInternal_v0_24__pxrReserved__24HdTypedSampledDataSourceIiEEES4_ED2Ev(ptr noundef nonnull align 8 dereferenceable(32) %6) #4
  %41 = load i64, ptr %3, align 4
  ret i64 %41

42:                                               ; preds = %38, %28, %14
  %43 = landingpad { ptr, i32 }
          cleanup
  %44 = extractvalue { ptr, i32 } %43, 0
  store ptr %44, ptr %8, align 8
  %45 = extractvalue { ptr, i32 } %43, 1
  store i32 %45, ptr %9, align 4
  call void @_ZNSt4pairISt10shared_ptrIN32pxrInternal_v0_24__pxrReserved__24HdTypedSampledDataSourceIiEEES4_ED2Ev(ptr noundef nonnull align 8 dereferenceable(32) %6) #4
  br label %46

46:                                               ; preds = %42
  %47 = load ptr, ptr %8, align 8
  %48 = load i32, ptr %9, align 4
  %49 = insertvalue { ptr, i32 } poison, ptr %47, 0
  %50 = insertvalue { ptr, i32 } %49, i32 %48, 1
  resume { ptr, i32 } %50
}