; Function Attrs: mustprogress uwtable
define i64 @_ZN32pxrInternal_v0_24__pxrReserved__17_NurbsPatchToMesh18_GetUVVertexCountsERKSt10shared_ptrINS_21HdContainerDataSourceEEf(ptr noundef nonnull align 8 dereferenceable(16) %0, float noundef %1) local_unnamed_addr #3 personality ptr @__gxx_personality_v0 {
  %3 = alloca %"struct.std::pair", align 8
  call void @_ZN32pxrInternal_v0_24__pxrReserved__17_NurbsPatchToMesh28_GetUVVertexCountDataSourcesERKSt10shared_ptrINS_21HdContainerDataSourceEE(ptr dead_on_unwind nonnull writable sret(%"struct.std::pair") align 8 %3, ptr noundef nonnull align 8 dereferenceable(16) %0)
  %4 = load ptr, ptr %3, align 8
  %.not = icmp eq ptr %4, null
  br i1 %.not, label %10, label %5

5:                                                ; preds = %2
  %6 = load ptr, ptr %4, align 8
  %7 = getelementptr inbounds nuw i8, ptr %6, i64 32
  %8 = load ptr, ptr %7, align 8
  %9 = invoke noundef i32 %8(ptr noundef nonnull align 8 dereferenceable(8) %4, float noundef %1)
          to label %10 unwind label %21

10:                                               ; preds = %2, %5
  %11 = phi i32 [ %9, %5 ], [ 0, %2 ]
  %12 = getelementptr inbounds nuw i8, ptr %3, i64 16
  %13 = load ptr, ptr %12, align 8
  %.not5 = icmp eq ptr %13, null
  br i1 %.not5, label %19, label %14

14:                                               ; preds = %10
  %15 = load ptr, ptr %13, align 8
  %16 = getelementptr inbounds nuw i8, ptr %15, i64 32
  %17 = load ptr, ptr %16, align 8
  %18 = invoke noundef i32 %17(ptr noundef nonnull align 8 dereferenceable(8) %13, float noundef %1)
          to label %19 unwind label %21

19:                                               ; preds = %10, %14
  %20 = phi i32 [ %18, %14 ], [ 0, %10 ]
  call void @_ZNSt4pairISt10shared_ptrIN32pxrInternal_v0_24__pxrReserved__24HdTypedSampledDataSourceIiEEES4_ED2Ev(ptr noundef nonnull align 8 dereferenceable(32) %3) #21
  %.sroa.2.0.insert.ext = zext i32 %20 to i64
  %.sroa.2.0.insert.shift = shl nuw i64 %.sroa.2.0.insert.ext, 32
  %.sroa.0.0.insert.ext = zext i32 %11 to i64
  %.sroa.0.0.insert.insert = or disjoint i64 %.sroa.2.0.insert.shift, %.sroa.0.0.insert.ext
  ret i64 %.sroa.0.0.insert.insert

21:                                               ; preds = %14, %5
  %22 = landingpad { ptr, i32 }
          cleanup
  call void @_ZNSt4pairISt10shared_ptrIN32pxrInternal_v0_24__pxrReserved__24HdTypedSampledDataSourceIiEEES4_ED2Ev(ptr noundef nonnull align 8 dereferenceable(32) %3) #21
  resume { ptr, i32 } %22
}